target datalayout = "e-m:e-p270:32:32-p271:32:32-p272:64:64-i64:64-i128:128-f80:128-n8:16:32:64-S128"
target triple = "x86_64-pc-linux-gnu"

%struct.TT_FaceRec_ = type { %struct.FT_FaceRec_, %struct.TTC_HeaderRec_, i64, i16, ptr, %struct.TT_Header_, %struct.TT_HoriHeader_, %struct.TT_MaxProfile_, i8, %struct.TT_VertHeader_, i16, %struct.TT_NameTableRec_, %struct.TT_OS2_, %struct.TT_Postscript_, ptr, i64, ptr, ptr, ptr, ptr, ptr, ptr, ptr, ptr, ptr, ptr, ptr, ptr, %struct.TT_Gasp_, %struct.TT_PCLT_, i64, ptr, %struct.TT_Post_NamesRec_, %struct.FT_Palette_Data_, i16, ptr, i8, %struct.FT_Color_, i64, ptr, i64, ptr, i64, ptr, ptr, %struct.FT_Generic_, ptr, i64, i64, i8, i8, ptr, i32, ptr, i32, i32, ptr, i64, i64, i64, ptr, ptr, i64, i32, i64, ptr, ptr, i64, i32, i32, ptr, ptr, i64, i32, i32, i32, %struct.TT_BDFRec_, i64, i64, i64, i64, ptr, ptr, ptr }
%struct.FT_FaceRec_ = type { i64, i64, i64, i64, i64, ptr, ptr, i32, ptr, i32, ptr, %struct.FT_Generic_, %struct.FT_BBox_, i16, i16, i16, i16, i16, i16, i16, i16, ptr, ptr, ptr, ptr, ptr, ptr, %struct.FT_ListRec_, %struct.FT_Generic_, ptr, ptr }
%struct.FT_BBox_ = type { i64, i64, i64, i64 }
%struct.FT_ListRec_ = type { ptr, ptr }
%struct.TTC_HeaderRec_ = type { i64, i64, i64, ptr }
%struct.TT_Header_ = type { i64, i64, i64, i64, i16, i16, [2 x i64], [2 x i64], i16, i16, i16, i16, i16, i16, i16, i16, i16 }
%struct.TT_HoriHeader_ = type { i64, i16, i16, i16, i16, i16, i16, i16, i16, i16, i16, [4 x i16], i16, i16, ptr, ptr }
%struct.TT_MaxProfile_ = type { i64, i16, i16, i16, i16, i16, i16, i16, i16, i16, i16, i16, i16, i16, i16 }
%struct.TT_VertHeader_ = type { i64, i16, i16, i16, i16, i16, i16, i16, i16, i16, i16, [4 x i16], i16, i16, ptr, ptr }
%struct.TT_NameTableRec_ = type { i16, i32, i32, ptr, i32, ptr, ptr }
%struct.TT_OS2_ = type { i16, i16, i16, i16, i16, i16, i16, i16, i16, i16, i16, i16, i16, i16, i16, i16, [10 x i8], i64, i64, i64, i64, [4 x i8], i16, i16, i16, i16, i16, i16, i16, i16, i64, i64, i16, i16, i16, i16, i16, i16, i16 }
%struct.TT_Postscript_ = type { i64, i64, i16, i16, i64, i64, i64, i64, i64 }
%struct.TT_Gasp_ = type { i16, i16, ptr }
%struct.TT_PCLT_ = type { i64, i64, i16, i16, i16, i16, i16, i16, [16 x i8], [8 x i8], [6 x i8], i8, i8, i8, i8 }
%struct.TT_Post_NamesRec_ = type { i8, i16, i16, ptr, ptr }
%struct.FT_Palette_Data_ = type { i16, ptr, ptr, i16, ptr }
%struct.FT_Color_ = type { i8, i8, i8, i8 }
%struct.FT_Generic_ = type { ptr, ptr }
%struct.TT_BDFRec_ = type { ptr, ptr, ptr, i64, i32, i8 }
%struct.CFF_FontRec_ = type { ptr, ptr, ptr, i64, i32, i32, i8, i8, i8, i32, i8, %struct.CFF_IndexRec_, %struct.CFF_IndexRec_, %struct.CFF_IndexRec_, %struct.CFF_EncodingRec_, %struct.CFF_CharsetRec_, %struct.CFF_IndexRec_, %struct.CFF_IndexRec_, %struct.CFF_IndexRec_, %struct.CFF_IndexRec_, ptr, ptr, i32, ptr, ptr, i64, %struct.CFF_SubFontRec_, i32, [256 x ptr], %struct.CFF_FDSelectRec_, ptr, ptr, ptr, ptr, ptr, ptr, %struct.FT_Generic_, %struct.CFF_VStoreRec_, ptr }
%struct.CFF_EncodingRec_ = type { i32, i64, i32, [256 x i16], [256 x i16] }
%struct.CFF_CharsetRec_ = type { i32, i64, ptr, ptr, i32, i32 }
%struct.CFF_IndexRec_ = type { ptr, i64, i32, i32, i8, i64, i64, ptr, ptr }
%struct.CFF_SubFontRec_ = type { %struct.CFF_FontRecDictRec_, %struct.CFF_PrivateRec_, %struct.CFF_BlendRec_, i32, ptr, ptr, ptr, i32, i32, %struct.CFF_IndexRec_, ptr, i32 }
%struct.CFF_FontRecDictRec_ = type { i32, i32, i32, i32, i32, i32, i8, i64, i64, i64, i32, i32, %struct.FT_Matrix_, i8, i64, %struct.FT_Vector_, i64, %struct.FT_BBox_, i64, i64, i64, i64, i64, i64, i64, i32, i32, i32, i64, i64, i64, i64, i64, i64, i64, i64, i32, i16, i16, i64, i32 }
%struct.FT_Matrix_ = type { i64, i64, i64, i64 }
%struct.FT_Vector_ = type { i64, i64 }
%struct.CFF_PrivateRec_ = type { i8, i8, i8, i8, [14 x i64], [10 x i64], [14 x i64], [10 x i64], i64, i64, i64, i64, i64, i8, i8, [13 x i64], [13 x i64], i8, i64, i32, i32, i64, i64, i64, i64, i64, i32, ptr }
%struct.CFF_BlendRec_ = type { i8, i8, ptr, i32, i32, ptr, i32, ptr }
%struct.CFF_FDSelectRec_ = type { i8, i32, ptr, i32, i32, i32, i8 }
%struct.CFF_VStoreRec_ = type { i32, ptr, i16, i32, ptr }
%struct.FT_Service_PsCMapsRec_ = type { ptr, ptr, ptr, ptr, ptr, ptr, ptr, ptr }
%struct.PS_FontInfoRec_ = type { ptr, ptr, ptr, ptr, ptr, i64, i8, i16, i16 }

; Function Attrs: nounwind uwtable
define internal ptr @cff_index_get_string(ptr noundef %0, i32 noundef %1) #0 {
  %3 = alloca ptr, align 8
  %4 = alloca i32, align 4
  store ptr %0, ptr %3, align 8
  store i32 %1, ptr %4, align 4
  %5 = load i32, ptr %4, align 4
  %6 = load ptr, ptr %3, align 8
  %7 = getelementptr inbounds %struct.CFF_FontRec_, ptr %6, i32 0, i32 22
  %8 = load i32, ptr %7, align 8
  %9 = icmp ult i32 %5, %8
  br i1 %9, label %10, label %18

10:                                               ; preds = %2
  %11 = load ptr, ptr %3, align 8
  %12 = getelementptr inbounds %struct.CFF_FontRec_, ptr %11, i32 0, i32 23
  %13 = load ptr, ptr %12, align 8
  %14 = load i32, ptr %4, align 4
  %15 = zext i32 %14 to i64
  %16 = getelementptr inbounds ptr, ptr %13, i64 %15
  %17 = load ptr, ptr %16, align 8
  br label %19

18:                                               ; preds = %2
  br label %19

19:                                               ; preds = %18, %10
  %20 = phi ptr [ %17, %10 ], [ null, %18 ]
  ret ptr %20
}

; Function Attrs: nounwind uwtable
define internal ptr @cff_index_get_sid_string(ptr noundef %0, i32 noundef %1) #0 {
  %3 = alloca ptr, align 8
  %4 = alloca ptr, align 8
  %5 = alloca i32, align 4
  store ptr %0, ptr %4, align 8
  store i32 %1, ptr %5, align 4
  %6 = load i32, ptr %5, align 4
  %7 = icmp eq i32 %6, 65535
  br i1 %7, label %8, label %9

8:                                                ; preds = %2
  store ptr null, ptr %3, align 8
  br label %31

9:                                                ; preds = %2
  %10 = load i32, ptr %5, align 4
  %11 = icmp ugt i32 %10, 390
  br i1 %11, label %12, label %17

12:                                               ; preds = %9
  %13 = load ptr, ptr %4, align 8
  %14 = load i32, ptr %5, align 4
  %15 = sub i32 %14, 391
  %16 = call ptr @cff_index_get_string(ptr noundef %13, i32 noundef %15)
  store ptr %16, ptr %3, align 8
  br label %31

17:                                               ; preds = %9
  %18 = load ptr, ptr %4, align 8
  %19 = getelementptr inbounds %struct.CFF_FontRec_, ptr %18, i32 0, i32 31
  %20 = load ptr, ptr %19, align 8
  %21 = icmp ne ptr %20, null
  br i1 %21, label %23, label %22

22:                                               ; preds = %17
  store ptr null, ptr %3, align 8
  br label %31

23:                                               ; preds = %17
  %24 = load ptr, ptr %4, align 8
  %25 = getelementptr inbounds %struct.CFF_FontRec_, ptr %24, i32 0, i32 31
  %26 = load ptr, ptr %25, align 8
  %27 = getelementptr inbounds %struct.FT_Service_PsCMapsRec_, ptr %26, i32 0, i32 5
  %28 = load ptr, ptr %27, align 8
  %29 = load i32, ptr %5, align 4
  %30 = call ptr %28(i32 noundef %29)
  store ptr %30, ptr %3, align 8
  br label %31

31:                                               ; preds = %23, %22, %12, %8
  %32 = load ptr, ptr %3, align 8
  ret ptr %32
}

; Function Attrs: nounwind uwtable
define internal i32 @cff_ps_get_font_info(ptr noundef %0, ptr noundef %1) #0 {
  %3 = alloca ptr, align 8
  %4 = alloca ptr, align 8
  %5 = alloca ptr, align 8
  %6 = alloca ptr, align 8
  %7 = alloca i32, align 4
  %8 = alloca ptr, align 8
  %9 = alloca ptr, align 8
  %10 = alloca ptr, align 8
  store ptr %0, ptr %3, align 8
  store ptr %1, ptr %4, align 8
  %11 = load ptr, ptr %3, align 8
  store ptr %11, ptr %5, align 8
  %12 = load ptr, ptr %5, align 8
  %13 = getelementptr inbounds %struct.TT_FaceRec_, ptr %12, i32 0, i32 45
  %14 = getelementptr inbounds %struct.FT_Generic_, ptr %13, i32 0, i32 0
  %15 = load ptr, ptr %14, align 8
  store ptr %15, ptr %6, align 8
  store i32 0, ptr %7, align 4
  %16 = load ptr, ptr %5, align 8
  %17 = getelementptr inbounds %struct.TT_FaceRec_, ptr %16, i32 0, i32 49
  %18 = load i8, ptr %17, align 8
  %19 = icmp ne i8 %18, 0
  br i1 %19, label %20, label %21

20:                                               ; preds = %2
  store i32 6, ptr %7, align 4
  br label %111

21:                                               ; preds = %2
  %22 = load ptr, ptr %6, align 8
  %23 = icmp ne ptr %22, null
  br i1 %23, label %24, label %102

24:                                               ; preds = %21
  %25 = load ptr, ptr %6, align 8
  %26 = getelementptr inbounds %struct.CFF_FontRec_, ptr %25, i32 0, i32 33
  %27 = load ptr, ptr %26, align 8
  %28 = icmp ne ptr %27, null
  br i1 %28, label %102, label %29

29:                                               ; preds = %24
  %30 = load ptr, ptr %6, align 8
  %31 = getelementptr inbounds %struct.CFF_FontRec_, ptr %30, i32 0, i32 26
  %32 = getelementptr inbounds %struct.CFF_SubFontRec_, ptr %31, i32 0, i32 0
  store ptr %32, ptr %8, align 8
  %33 = load ptr, ptr %3, align 8
  %34 = getelementptr inbounds %struct.FT_FaceRec_, ptr %33, i32 0, i32 25
  %35 = load ptr, ptr %34, align 8
  store ptr %35, ptr %9, align 8
  store ptr null, ptr %10, align 8
  %36 = load ptr, ptr %9, align 8
  %37 = call ptr @ft_mem_qalloc(ptr noundef %36, i64 noundef 56, ptr noundef %7)
  store ptr %37, ptr %10, align 8
  %38 = load i32, ptr %7, align 4
  %39 = icmp ne i32 %38, 0
  br i1 %39, label %40, label %41

40:                                               ; preds = %29
  br label %111

41:                                               ; preds = %29
  %42 = load ptr, ptr %6, align 8
  %43 = load ptr, ptr %8, align 8
  %44 = getelementptr inbounds %struct.CFF_FontRecDictRec_, ptr %43, i32 0, i32 0
  %45 = load i32, ptr %44, align 8
  %46 = call ptr @cff_index_get_sid_string(ptr noundef %42, i32 noundef %45)
  %47 = load ptr, ptr %10, align 8
  %48 = getelementptr inbounds %struct.PS_FontInfoRec_, ptr %47, i32 0, i32 0
  store ptr %46, ptr %48, align 8
  %49 = load ptr, ptr %6, align 8
  %50 = load ptr, ptr %8, align 8
  %51 = getelementptr inbounds %struct.CFF_FontRecDictRec_, ptr %50, i32 0, i32 1
  %52 = load i32, ptr %51, align 4
  %53 = call ptr @cff_index_get_sid_string(ptr noundef %49, i32 noundef %52)
  %54 = load ptr, ptr %10, align 8
  %55 = getelementptr inbounds %struct.PS_FontInfoRec_, ptr %54, i32 0, i32 1
  store ptr %53, ptr %55, align 8
  %56 = load ptr, ptr %6, align 8
  %57 = load ptr, ptr %8, align 8
  %58 = getelementptr inbounds %struct.CFF_FontRecDictRec_, ptr %57, i32 0, i32 3
  %59 = load i32, ptr %58, align 4
  %60 = call ptr @cff_index_get_sid_string(ptr noundef %56, i32 noundef %59)
  %61 = load ptr, ptr %10, align 8
  %62 = getelementptr inbounds %struct.PS_FontInfoRec_, ptr %61, i32 0, i32 2
  store ptr %60, ptr %62, align 8
  %63 = load ptr, ptr %6, align 8
  %64 = load ptr, ptr %8, align 8
  %65 = getelementptr inbounds %struct.CFF_FontRecDictRec_, ptr %64, i32 0, i32 4
  %66 = load i32, ptr %65, align 8
  %67 = call ptr @cff_index_get_sid_string(ptr noundef %63, i32 noundef %66)
  %68 = load ptr, ptr %10, align 8
  %69 = getelementptr inbounds %struct.PS_FontInfoRec_, ptr %68, i32 0, i32 3
  store ptr %67, ptr %69, align 8
  %70 = load ptr, ptr %6, align 8
  %71 = load ptr, ptr %8, align 8
  %72 = getelementptr inbounds %struct.CFF_FontRecDictRec_, ptr %71, i32 0, i32 5
  %73 = load i32, ptr %72, align 4
  %74 = call ptr @cff_index_get_sid_string(ptr noundef %70, i32 noundef %73)
  %75 = load ptr, ptr %10, align 8
  %76 = getelementptr inbounds %struct.PS_FontInfoRec_, ptr %75, i32 0, i32 4
  store ptr %74, ptr %76, align 8
  %77 = load ptr, ptr %8, align 8
  %78 = getelementptr inbounds %struct.CFF_FontRecDictRec_, ptr %77, i32 0, i32 7
  %79 = load i64, ptr %78, align 8
  %80 = load ptr, ptr %10, align 8
  %81 = getelementptr inbounds %struct.PS_FontInfoRec_, ptr %80, i32 0, i32 5
  store i64 %79, ptr %81, align 8
  %82 = load ptr, ptr %8, align 8
  %83 = getelementptr inbounds %struct.CFF_FontRecDictRec_, ptr %82, i32 0, i32 6
  %84 = load i8, ptr %83, align 8
  %85 = load ptr, ptr %10, align 8
  %86 = getelementptr inbounds %struct.PS_FontInfoRec_, ptr %85, i32 0, i32 6
  store i8 %84, ptr %86, align 8
  %87 = load ptr, ptr %8, align 8
  %88 = getelementptr inbounds %struct.CFF_FontRecDictRec_, ptr %87, i32 0, i32 8
  %89 = load i64, ptr %88, align 8
  %90 = trunc i64 %89 to i16
  %91 = load ptr, ptr %10, align 8
  %92 = getelementptr inbounds %struct.PS_FontInfoRec_, ptr %91, i32 0, i32 7
  store i16 %90, ptr %92, align 2
  %93 = load ptr, ptr %8, align 8
  %94 = getelementptr inbounds %struct.CFF_FontRecDictRec_, ptr %93, i32 0, i32 9
  %95 = load i64, ptr %94, align 8
  %96 = trunc i64 %95 to i16
  %97 = load ptr, ptr %10, align 8
  %98 = getelementptr inbounds %struct.PS_FontInfoRec_, ptr %97, i32 0, i32 8
  store i16 %96, ptr %98, align 4
  %99 = load ptr, ptr %10, align 8
  %100 = load ptr, ptr %6, align 8
  %101 = getelementptr inbounds %struct.CFF_FontRec_, ptr %100, i32 0, i32 33
  store ptr %99, ptr %101, align 8
  br label %102

102:                                              ; preds = %41, %24, %21
  %103 = load ptr, ptr %6, align 8
  %104 = icmp ne ptr %103, null
  br i1 %104, label %105, label %110

105:                                              ; preds = %102
  %106 = load ptr, ptr %4, align 8
  %107 = load ptr, ptr %6, align 8
  %108 = getelementptr inbounds %struct.CFF_FontRec_, ptr %107, i32 0, i32 33
  %109 = load ptr, ptr %108, align 8
  call void @llvm.memcpy.p0.p0.i64(ptr align 8 %106, ptr align 8 %109, i64 56, i1 false)
  br label %110

110:                                              ; preds = %105, %102
  br label %111

111:                                              ; preds = %110, %40, %20
  %112 = load i32, ptr %7, align 4
  ret i32 %112
}