; Function Attrs: nounwind uwtable
define internal i32 @cff_ps_get_font_info(ptr nocapture noundef readonly %0, ptr nocapture noundef writeonly %1) #4 {
  %3 = alloca i32, align 4
  %4 = getelementptr inbounds i8, ptr %0, i64 1168
  %5 = load ptr, ptr %4, align 8
  store i32 0, ptr %3, align 4
  %6 = getelementptr inbounds i8, ptr %0, i64 1208
  %7 = load i8, ptr %6, align 8
  %.not = icmp eq i8 %7, 0
  br i1 %.not, label %8, label %.critedge

8:                                                ; preds = %2
  %.not36 = icmp eq ptr %5, null
  br i1 %.not36, label %.critedge, label %9

9:                                                ; preds = %8
  %10 = getelementptr inbounds i8, ptr %5, i64 4976
  %11 = load ptr, ptr %10, align 8
  %.not37 = icmp eq ptr %11, null
  br i1 %.not37, label %12, label %151

12:                                               ; preds = %9
  %13 = getelementptr inbounds i8, ptr %0, i64 184
  %14 = load ptr, ptr %13, align 8
  %15 = call ptr @ft_mem_qalloc(ptr noundef %14, i64 noundef 56, ptr noundef nonnull %3) #20
  %16 = load i32, ptr %3, align 4
  %.not38 = icmp eq i32 %16, 0
  br i1 %.not38, label %17, label %.critedge

17:                                               ; preds = %12
  %18 = getelementptr inbounds i8, ptr %5, i64 1640
  %19 = load i32, ptr %18, align 8
  %20 = icmp eq i32 %19, 65535
  br i1 %20, label %cff_index_get_sid_string.exit, label %21

21:                                               ; preds = %17
  %22 = icmp ugt i32 %19, 390
  br i1 %22, label %23, label %34

23:                                               ; preds = %21
  %24 = add i32 %19, -391
  %25 = getelementptr inbounds i8, ptr %5, i64 1608
  %26 = load i32, ptr %25, align 8
  %27 = icmp ugt i32 %26, %24
  br i1 %27, label %28, label %cff_index_get_sid_string.exit

28:                                               ; preds = %23
  %29 = getelementptr inbounds i8, ptr %5, i64 1616
  %30 = load ptr, ptr %29, align 8
  %31 = zext i32 %24 to i64
  %32 = getelementptr inbounds ptr, ptr %30, i64 %31
  %33 = load ptr, ptr %32, align 8
  br label %cff_index_get_sid_string.exit

34:                                               ; preds = %21
  %35 = getelementptr inbounds i8, ptr %5, i64 4960
  %36 = load ptr, ptr %35, align 8
  %.not.i = icmp eq ptr %36, null
  br i1 %.not.i, label %cff_index_get_sid_string.exit, label %37

37:                                               ; preds = %34
  %38 = getelementptr inbounds i8, ptr %36, i64 40
  %39 = load ptr, ptr %38, align 8
  %40 = call ptr %39(i32 noundef %19) #20
  br label %cff_index_get_sid_string.exit

cff_index_get_sid_string.exit:                    ; preds = %17, %23, %28, %34, %37
  %.0.i = phi ptr [ %40, %37 ], [ null, %17 ], [ null, %34 ], [ %33, %28 ], [ null, %23 ]
  store ptr %.0.i, ptr %15, align 8
  %41 = getelementptr inbounds i8, ptr %5, i64 1644
  %42 = load i32, ptr %41, align 4
  %43 = icmp eq i32 %42, 65535
  br i1 %43, label %cff_index_get_sid_string.exit41, label %44

44:                                               ; preds = %cff_index_get_sid_string.exit
  %45 = icmp ugt i32 %42, 390
  br i1 %45, label %46, label %57

46:                                               ; preds = %44
  %47 = add i32 %42, -391
  %48 = getelementptr inbounds i8, ptr %5, i64 1608
  %49 = load i32, ptr %48, align 8
  %50 = icmp ugt i32 %49, %47
  br i1 %50, label %51, label %cff_index_get_sid_string.exit41

51:                                               ; preds = %46
  %52 = getelementptr inbounds i8, ptr %5, i64 1616
  %53 = load ptr, ptr %52, align 8
  %54 = zext i32 %47 to i64
  %55 = getelementptr inbounds ptr, ptr %53, i64 %54
  %56 = load ptr, ptr %55, align 8
  br label %cff_index_get_sid_string.exit41

57:                                               ; preds = %44
  %58 = getelementptr inbounds i8, ptr %5, i64 4960
  %59 = load ptr, ptr %58, align 8
  %.not.i39 = icmp eq ptr %59, null
  br i1 %.not.i39, label %cff_index_get_sid_string.exit41, label %60

60:                                               ; preds = %57
  %61 = getelementptr inbounds i8, ptr %59, i64 40
  %62 = load ptr, ptr %61, align 8
  %63 = call ptr %62(i32 noundef %42) #20
  br label %cff_index_get_sid_string.exit41

cff_index_get_sid_string.exit41:                  ; preds = %cff_index_get_sid_string.exit, %46, %51, %57, %60
  %.0.i40 = phi ptr [ %63, %60 ], [ null, %cff_index_get_sid_string.exit ], [ null, %57 ], [ %56, %51 ], [ null, %46 ]
  %64 = getelementptr inbounds i8, ptr %15, i64 8
  store ptr %.0.i40, ptr %64, align 8
  %65 = getelementptr inbounds i8, ptr %5, i64 1652
  %66 = load i32, ptr %65, align 4
  %67 = icmp eq i32 %66, 65535
  br i1 %67, label %cff_index_get_sid_string.exit44, label %68

68:                                               ; preds = %cff_index_get_sid_string.exit41
  %69 = icmp ugt i32 %66, 390
  br i1 %69, label %70, label %81

70:                                               ; preds = %68
  %71 = add i32 %66, -391
  %72 = getelementptr inbounds i8, ptr %5, i64 1608
  %73 = load i32, ptr %72, align 8
  %74 = icmp ugt i32 %73, %71
  br i1 %74, label %75, label %cff_index_get_sid_string.exit44

75:                                               ; preds = %70
  %76 = getelementptr inbounds i8, ptr %5, i64 1616
  %77 = load ptr, ptr %76, align 8
  %78 = zext i32 %71 to i64
  %79 = getelementptr inbounds ptr, ptr %77, i64 %78
  %80 = load ptr, ptr %79, align 8
  br label %cff_index_get_sid_string.exit44

81:                                               ; preds = %68
  %82 = getelementptr inbounds i8, ptr %5, i64 4960
  %83 = load ptr, ptr %82, align 8
  %.not.i42 = icmp eq ptr %83, null
  br i1 %.not.i42, label %cff_index_get_sid_string.exit44, label %84

84:                                               ; preds = %81
  %85 = getelementptr inbounds i8, ptr %83, i64 40
  %86 = load ptr, ptr %85, align 8
  %87 = call ptr %86(i32 noundef %66) #20
  br label %cff_index_get_sid_string.exit44

cff_index_get_sid_string.exit44:                  ; preds = %cff_index_get_sid_string.exit41, %70, %75, %81, %84
  %.0.i43 = phi ptr [ %87, %84 ], [ null, %cff_index_get_sid_string.exit41 ], [ null, %81 ], [ %80, %75 ], [ null, %70 ]
  %88 = getelementptr inbounds i8, ptr %15, i64 16
  store ptr %.0.i43, ptr %88, align 8
  %89 = getelementptr inbounds i8, ptr %5, i64 1656
  %90 = load i32, ptr %89, align 8
  %91 = icmp eq i32 %90, 65535
  br i1 %91, label %cff_index_get_sid_string.exit47, label %92

92:                                               ; preds = %cff_index_get_sid_string.exit44
  %93 = icmp ugt i32 %90, 390
  br i1 %93, label %94, label %105

94:                                               ; preds = %92
  %95 = add i32 %90, -391
  %96 = getelementptr inbounds i8, ptr %5, i64 1608
  %97 = load i32, ptr %96, align 8
  %98 = icmp ugt i32 %97, %95
  br i1 %98, label %99, label %cff_index_get_sid_string.exit47

99:                                               ; preds = %94
  %100 = getelementptr inbounds i8, ptr %5, i64 1616
  %101 = load ptr, ptr %100, align 8
  %102 = zext i32 %95 to i64
  %103 = getelementptr inbounds ptr, ptr %101, i64 %102
  %104 = load ptr, ptr %103, align 8
  br label %cff_index_get_sid_string.exit47

105:                                              ; preds = %92
  %106 = getelementptr inbounds i8, ptr %5, i64 4960
  %107 = load ptr, ptr %106, align 8
  %.not.i45 = icmp eq ptr %107, null
  br i1 %.not.i45, label %cff_index_get_sid_string.exit47, label %108

108:                                              ; preds = %105
  %109 = getelementptr inbounds i8, ptr %107, i64 40
  %110 = load ptr, ptr %109, align 8
  %111 = call ptr %110(i32 noundef %90) #20
  br label %cff_index_get_sid_string.exit47

cff_index_get_sid_string.exit47:                  ; preds = %cff_index_get_sid_string.exit44, %94, %99, %105, %108
  %.0.i46 = phi ptr [ %111, %108 ], [ null, %cff_index_get_sid_string.exit44 ], [ null, %105 ], [ %104, %99 ], [ null, %94 ]
  %112 = getelementptr inbounds i8, ptr %15, i64 24
  store ptr %.0.i46, ptr %112, align 8
  %113 = getelementptr inbounds i8, ptr %5, i64 1660
  %114 = load i32, ptr %113, align 4
  %115 = icmp eq i32 %114, 65535
  br i1 %115, label %cff_index_get_sid_string.exit50, label %116

116:                                              ; preds = %cff_index_get_sid_string.exit47
  %117 = icmp ugt i32 %114, 390
  br i1 %117, label %118, label %129

118:                                              ; preds = %116
  %119 = add i32 %114, -391
  %120 = getelementptr inbounds i8, ptr %5, i64 1608
  %121 = load i32, ptr %120, align 8
  %122 = icmp ugt i32 %121, %119
  br i1 %122, label %123, label %cff_index_get_sid_string.exit50

123:                                              ; preds = %118
  %124 = getelementptr inbounds i8, ptr %5, i64 1616
  %125 = load ptr, ptr %124, align 8
  %126 = zext i32 %119 to i64
  %127 = getelementptr inbounds ptr, ptr %125, i64 %126
  %128 = load ptr, ptr %127, align 8
  br label %cff_index_get_sid_string.exit50

129:                                              ; preds = %116
  %130 = getelementptr inbounds i8, ptr %5, i64 4960
  %131 = load ptr, ptr %130, align 8
  %.not.i48 = icmp eq ptr %131, null
  br i1 %.not.i48, label %cff_index_get_sid_string.exit50, label %132

132:                                              ; preds = %129
  %133 = getelementptr inbounds i8, ptr %131, i64 40
  %134 = load ptr, ptr %133, align 8
  %135 = call ptr %134(i32 noundef %114) #20
  br label %cff_index_get_sid_string.exit50

cff_index_get_sid_string.exit50:                  ; preds = %cff_index_get_sid_string.exit47, %118, %123, %129, %132
  %.0.i49 = phi ptr [ %135, %132 ], [ null, %cff_index_get_sid_string.exit47 ], [ null, %129 ], [ %128, %123 ], [ null, %118 ]
  %136 = getelementptr inbounds i8, ptr %15, i64 32
  store ptr %.0.i49, ptr %136, align 8
  %137 = getelementptr inbounds i8, ptr %5, i64 1672
  %138 = load i64, ptr %137, align 8
  %139 = getelementptr inbounds i8, ptr %15, i64 40
  store i64 %138, ptr %139, align 8
  %140 = getelementptr inbounds i8, ptr %5, i64 1664
  %141 = load i8, ptr %140, align 8
  %142 = getelementptr inbounds i8, ptr %15, i64 48
  store i8 %141, ptr %142, align 8
  %143 = getelementptr inbounds i8, ptr %5, i64 1680
  %144 = load i64, ptr %143, align 8
  %145 = trunc i64 %144 to i16
  %146 = getelementptr inbounds i8, ptr %15, i64 50
  store i16 %145, ptr %146, align 2
  %147 = getelementptr inbounds i8, ptr %5, i64 1688
  %148 = load i64, ptr %147, align 8
  %149 = trunc i64 %148 to i16
  %150 = getelementptr inbounds i8, ptr %15, i64 52
  store i16 %149, ptr %150, align 4
  store ptr %15, ptr %10, align 8
  %.pre.pre = load i32, ptr %3, align 4
  br label %151

151:                                              ; preds = %9, %cff_index_get_sid_string.exit50
  %.pre = phi i32 [ 0, %9 ], [ %.pre.pre, %cff_index_get_sid_string.exit50 ]
  %152 = phi ptr [ %11, %9 ], [ %15, %cff_index_get_sid_string.exit50 ]
  call void @llvm.memcpy.p0.p0.i64(ptr noundef nonnull align 8 dereferenceable(56) %1, ptr noundef nonnull align 8 dereferenceable(56) %152, i64 56, i1 false)
  br label %.critedge

.critedge:                                        ; preds = %2, %8, %151, %12
  %153 = phi i32 [ 0, %8 ], [ %.pre, %151 ], [ %16, %12 ], [ 6, %2 ]
  ret i32 %153
}